target datalayout = "e-m:e-p270:32:32-p271:32:32-p272:64:64-i64:64-i128:128-f80:128-n8:16:32:64-S128"
target triple = "x86_64-pc-linux-gnu"

%struct.___itt_global = type { [8 x i8], i64, i64, i64, i64, i64, i64, %union.pthread_mutex_t, ptr, ptr, ptr, ptr, ptr, ptr, ptr, ptr, i32, ptr, i32, ptr, ptr }
%union.pthread_mutex_t = type { %struct.__pthread_mutex_s }
%struct.__pthread_mutex_s = type { i32, i32, i32, i32, i32, i16, i16, %struct.__pthread_internal_list }
%struct.__pthread_internal_list = type { ptr, ptr }
%struct.___itt_id = type { i64, i64, i64 }

@__itt_id_destroy_ex_ptr__3_0 = global ptr @_ZL28__itt_id_destroy_ex_init_3_0PK13___itt_domainP19___itt_clock_domainy9___itt_id, align 8

; Function Attrs: mustprogress sspstrong uwtable
define internal void @_ZL28__itt_id_destroy_ex_init_3_0PK13___itt_domainP19___itt_clock_domainy9___itt_id(ptr noundef %0, ptr noundef %1, i64 noundef %2, ptr noundef byval(%struct.___itt_id) align 8 %3) #0 {
  %5 = alloca ptr, align 8
  %6 = alloca ptr, align 8
  %7 = alloca i64, align 8
  %8 = alloca %struct.___itt_id, align 8
  store ptr %0, ptr %5, align 8, !tbaa !32
  store ptr %1, ptr %6, align 8, !tbaa !57
  store i64 %2, ptr %7, align 8, !tbaa !34
  %9 = load volatile i64, ptr getelementptr inbounds nuw (%struct.___itt_global, ptr @__itt__ittapi_global, i32 0, i32 4), align 8, !tbaa !3
  %10 = icmp ne i64 %9, 0
  br i1 %10, label %15, label %11

11:                                               ; preds = %4
  %12 = load ptr, ptr getelementptr inbounds nuw (%struct.___itt_global, ptr @__itt__ittapi_global, i32 0, i32 13), align 8, !tbaa !21
  %13 = icmp eq ptr %12, null
  br i1 %13, label %14, label %15

14:                                               ; preds = %11
  call void @ITT_DoOneTimeInitialization()
  br label %15

15:                                               ; preds = %14, %11, %4
  %16 = load ptr, ptr @__itt_id_destroy_ex_ptr__3_0, align 8, !tbaa !22
  %17 = icmp ne ptr %16, null
  br i1 %17, label %18, label %26

18:                                               ; preds = %15
  %19 = load ptr, ptr @__itt_id_destroy_ex_ptr__3_0, align 8, !tbaa !22
  %20 = icmp ne ptr %19, @_ZL28__itt_id_destroy_ex_init_3_0PK13___itt_domainP19___itt_clock_domainy9___itt_id
  br i1 %20, label %21, label %26

21:                                               ; preds = %18
  %22 = load ptr, ptr @__itt_id_destroy_ex_ptr__3_0, align 8, !tbaa !22
  %23 = load ptr, ptr %5, align 8, !tbaa !32
  %24 = load ptr, ptr %6, align 8, !tbaa !57
  %25 = load i64, ptr %7, align 8, !tbaa !34
  call void @llvm.memcpy.p0.p0.i64(ptr align 8 %8, ptr align 8 %3, i64 24, i1 false), !tbaa.struct !33
  call void %22(ptr noundef %23, ptr noundef %24, i64 noundef %25, ptr noundef byval(%struct.___itt_id) align 8 %8)
  br label %27

26:                                               ; preds = %18, %15
  br label %27

27:                                               ; preds = %26, %21
  ret void
}